target datalayout = "e-m:e-p270:32:32-p271:32:32-p272:64:64-i64:64-i128:128-f80:128-n8:16:32:64-S128"
target triple = "x86_64-pc-linux-gnu"

%"class.zmq::signaler_t" = type { i32, i32, i32 }

; Function Attrs: mustprogress uwtable
define void @_ZN3zmq10signaler_tC2Ev(ptr noundef nonnull align 4 dereferenceable(12) %0) unnamed_addr #0 align 2 {
  %2 = alloca ptr, align 8
  store ptr %0, ptr %2, align 8, !tbaa !3
  %3 = load ptr, ptr %2, align 8
  %4 = getelementptr inbounds nuw %"class.zmq::signaler_t", ptr %3, i32 0, i32 1
  %5 = getelementptr inbounds nuw %"class.zmq::signaler_t", ptr %3, i32 0, i32 0
  %6 = call noundef i32 @_ZN3zmq11make_fdpairEPiS0_(ptr noundef %4, ptr noundef %5)
  %7 = icmp eq i32 %6, 0
  br i1 %7, label %8, label %13

8:                                                ; preds = %1
  %9 = getelementptr inbounds nuw %"class.zmq::signaler_t", ptr %3, i32 0, i32 0
  %10 = load i32, ptr %9, align 4, !tbaa !8
  call void @_ZN3zmq14unblock_socketEi(i32 noundef %10)
  %11 = getelementptr inbounds nuw %"class.zmq::signaler_t", ptr %3, i32 0, i32 1
  %12 = load i32, ptr %11, align 4, !tbaa !11
  call void @_ZN3zmq14unblock_socketEi(i32 noundef %12)
  br label %13

13:                                               ; preds = %8, %1
  %14 = call i32 @getpid() #9
  %15 = getelementptr inbounds nuw %"class.zmq::signaler_t", ptr %3, i32 0, i32 2
  store i32 %14, ptr %15, align 4, !tbaa !12
  ret void
}