; Function Attrs: mustprogress uwtable
define void @_ZN3zmq10signaler_tC2Ev(ptr noundef nonnull align 4 dereferenceable(12) %0) unnamed_addr #0 align 2 {
  %2 = getelementptr inbounds nuw i8, ptr %0, i64 4
  %3 = tail call noundef i32 @_ZN3zmq11make_fdpairEPiS0_(ptr noundef nonnull %2, ptr noundef nonnull %0)
  %4 = icmp eq i32 %3, 0
  br i1 %4, label %5, label %8

5:                                                ; preds = %1
  %6 = load i32, ptr %0, align 4, !tbaa !3
  tail call void @_ZN3zmq14unblock_socketEi(i32 noundef %6)
  %7 = load i32, ptr %2, align 4, !tbaa !8
  tail call void @_ZN3zmq14unblock_socketEi(i32 noundef %7)
  br label %8

8:                                                ; preds = %5, %1
  %9 = tail call i32 @getpid() #11
  %10 = getelementptr inbounds nuw i8, ptr %0, i64 8
  store i32 %9, ptr %10, align 4, !tbaa !9
  ret void
}